target datalayout = "e-m:e-p270:32:32-p271:32:32-p272:64:64-i64:64-i128:128-f80:128-n8:16:32:64-S128"
target triple = "x86_64-pc-linux-gnu"

%struct._object = type { %union.anon, ptr }
%union.anon = type { i64 }
%struct.pysqlite_Connection = type { %struct._object, ptr, ptr, i32, ptr, i32, i32, i32, i64, ptr, ptr, ptr, i32, ptr, ptr, ptr, ptr, ptr, ptr, ptr, ptr, ptr, ptr, ptr, ptr, ptr, ptr, ptr }

@.str.6 = private unnamed_addr constant [24 x i8] c"unclosed database in %R\00", align 1
@PyExc_Warning = external global ptr, align 8
@.str.7 = private unnamed_addr constant [58 x i8] c"Exception ignored while finalizing database connection %R\00", align 1
@.str.8 = private unnamed_addr constant [44 x i8] c"Exception ignored while closing database %R\00", align 1

; Function Attrs: nounwind uwtable
define internal void @remove_callbacks(ptr noundef %0) #0 {
  %2 = alloca ptr, align 8
  %3 = alloca i32, align 4
  store ptr %0, ptr %2, align 8, !tbaa !56
  call void @llvm.lifetime.start.p0(i64 4, ptr %3) #8
  %4 = load ptr, ptr %2, align 8, !tbaa !56
  %5 = call i32 @sqlite3_trace_v2(ptr noundef %4, i32 noundef 1, ptr noundef null, ptr noundef null)
  store i32 %5, ptr %3, align 4, !tbaa !30
  %6 = load ptr, ptr %2, align 8, !tbaa !56
  call void @sqlite3_progress_handler(ptr noundef %6, i32 noundef 0, ptr noundef null, ptr noundef null)
  %7 = load ptr, ptr %2, align 8, !tbaa !56
  %8 = call i32 @sqlite3_set_authorizer(ptr noundef %7, ptr noundef null, ptr noundef null)
  store i32 %8, ptr %3, align 4, !tbaa !30
  call void @llvm.lifetime.end.p0(i64 4, ptr %3) #8
  ret void
}

; Function Attrs: nounwind uwtable
define internal void @connection_finalize(ptr noundef %0) #0 {
  %2 = alloca ptr, align 8
  %3 = alloca ptr, align 8
  %4 = alloca ptr, align 8
  %5 = alloca ptr, align 8
  %6 = alloca i32, align 4
  store ptr %0, ptr %2, align 8, !tbaa !22
  call void @llvm.lifetime.start.p0(i64 8, ptr %3) #8
  %7 = load ptr, ptr %2, align 8, !tbaa !22
  store ptr %7, ptr %3, align 8, !tbaa !3
  call void @llvm.lifetime.start.p0(i64 8, ptr %4) #8
  %8 = call ptr @PyErr_GetRaisedException()
  store ptr %8, ptr %4, align 8, !tbaa !22
  call void @llvm.lifetime.start.p0(i64 8, ptr %5) #8
  %9 = call ptr @PyInterpreterState_Get()
  store ptr %9, ptr %5, align 8, !tbaa !28
  call void @llvm.lifetime.start.p0(i64 4, ptr %6) #8
  %10 = load ptr, ptr %5, align 8, !tbaa !28
  %11 = call i32 @_Py_IsInterpreterFinalizing(ptr noundef %10)
  store i32 %11, ptr %6, align 4, !tbaa !30
  %12 = load i32, ptr %6, align 4, !tbaa !30
  %13 = icmp ne i32 %12, 0
  br i1 %13, label %14, label %23

14:                                               ; preds = %1
  %15 = load ptr, ptr %3, align 8, !tbaa !3
  %16 = getelementptr inbounds nuw %struct.pysqlite_Connection, ptr %15, i32 0, i32 1
  %17 = load ptr, ptr %16, align 8, !tbaa !19
  %18 = icmp ne ptr %17, null
  br i1 %18, label %19, label %23

19:                                               ; preds = %14
  %20 = load ptr, ptr %3, align 8, !tbaa !3
  %21 = getelementptr inbounds nuw %struct.pysqlite_Connection, ptr %20, i32 0, i32 1
  %22 = load ptr, ptr %21, align 8, !tbaa !19
  call void @remove_callbacks(ptr noundef %22)
  br label %23

23:                                               ; preds = %19, %14, %1
  %24 = load ptr, ptr %3, align 8, !tbaa !3
  %25 = getelementptr inbounds nuw %struct.pysqlite_Connection, ptr %24, i32 0, i32 1
  %26 = load ptr, ptr %25, align 8, !tbaa !19
  %27 = icmp ne ptr %26, null
  br i1 %27, label %28, label %41

28:                                               ; preds = %23
  %29 = load ptr, ptr %2, align 8, !tbaa !22
  %30 = load ptr, ptr %2, align 8, !tbaa !22
  %31 = call i32 (ptr, i64, ptr, ...) @PyErr_ResourceWarning(ptr noundef %29, i64 noundef 1, ptr noundef @.str.6, ptr noundef %30)
  %32 = icmp ne i32 %31, 0
  br i1 %32, label %33, label %40

33:                                               ; preds = %28
  %34 = load ptr, ptr @PyExc_Warning, align 8, !tbaa !22
  %35 = call i32 @PyErr_ExceptionMatches(ptr noundef %34)
  %36 = icmp ne i32 %35, 0
  br i1 %36, label %37, label %39

37:                                               ; preds = %33
  %38 = load ptr, ptr %2, align 8, !tbaa !22
  call void (ptr, ...) @PyErr_FormatUnraisable(ptr noundef @.str.7, ptr noundef %38)
  br label %39

39:                                               ; preds = %37, %33
  br label %40

40:                                               ; preds = %39, %28
  br label %41

41:                                               ; preds = %40, %23
  %42 = load ptr, ptr %3, align 8, !tbaa !3
  %43 = call i32 @connection_close(ptr noundef %42)
  %44 = icmp slt i32 %43, 0
  br i1 %44, label %45, label %52

45:                                               ; preds = %41
  %46 = load i32, ptr %6, align 4, !tbaa !30
  %47 = icmp ne i32 %46, 0
  br i1 %47, label %48, label %49

48:                                               ; preds = %45
  call void @PyErr_Clear()
  br label %51

49:                                               ; preds = %45
  %50 = load ptr, ptr %2, align 8, !tbaa !22
  call void (ptr, ...) @PyErr_FormatUnraisable(ptr noundef @.str.8, ptr noundef %50)
  br label %51

51:                                               ; preds = %49, %48
  br label %52

52:                                               ; preds = %51, %41
  %53 = load ptr, ptr %4, align 8, !tbaa !22
  call void @PyErr_SetRaisedException(ptr noundef %53)
  call void @llvm.lifetime.end.p0(i64 4, ptr %6) #8
  call void @llvm.lifetime.end.p0(i64 8, ptr %5) #8
  call void @llvm.lifetime.end.p0(i64 8, ptr %4) #8
  call void @llvm.lifetime.end.p0(i64 8, ptr %3) #8
  ret void
}