; Function Attrs: nounwind uwtable
define internal void @connection_finalize(ptr noundef %0) #0 {
  %2 = tail call ptr @PyErr_GetRaisedException() #7
  %3 = tail call ptr @PyInterpreterState_Get() #7
  %4 = tail call i32 @_Py_IsInterpreterFinalizing(ptr noundef %3) #7
  %.not = icmp eq i32 %4, 0
  br i1 %.not, label %11, label %5

5:                                                ; preds = %1
  %6 = getelementptr inbounds nuw i8, ptr %0, i64 16
  %7 = load ptr, ptr %6, align 8, !tbaa !17
  %.not12 = icmp eq ptr %7, null
  br i1 %.not12, label %11, label %8

8:                                                ; preds = %5
  %9 = tail call i32 @sqlite3_trace_v2(ptr noundef nonnull %7, i32 noundef 1, ptr noundef null, ptr noundef null) #7
  tail call void @sqlite3_progress_handler(ptr noundef nonnull %7, i32 noundef 0, ptr noundef null, ptr noundef null) #7
  %10 = tail call i32 @sqlite3_set_authorizer(ptr noundef nonnull %7, ptr noundef null, ptr noundef null) #7
  br label %11

11:                                               ; preds = %8, %5, %1
  %12 = getelementptr inbounds nuw i8, ptr %0, i64 16
  %13 = load ptr, ptr %12, align 8, !tbaa !17
  %.not13 = icmp eq ptr %13, null
  br i1 %.not13, label %20, label %14

14:                                               ; preds = %11
  %15 = tail call i32 (ptr, i64, ptr, ...) @PyErr_ResourceWarning(ptr noundef nonnull %0, i64 noundef 1, ptr noundef nonnull @.str.6, ptr noundef nonnull %0) #7
  %.not14 = icmp eq i32 %15, 0
  br i1 %.not14, label %20, label %16

16:                                               ; preds = %14
  %17 = load ptr, ptr @PyExc_Warning, align 8, !tbaa !25
  %18 = tail call i32 @PyErr_ExceptionMatches(ptr noundef %17) #7
  %.not15 = icmp eq i32 %18, 0
  br i1 %.not15, label %20, label %19

19:                                               ; preds = %16
  tail call void (ptr, ...) @PyErr_FormatUnraisable(ptr noundef nonnull @.str.7, ptr noundef nonnull %0) #7
  br label %20

20:                                               ; preds = %14, %19, %16, %11
  %21 = tail call fastcc i32 @connection_close(ptr noundef nonnull %0)
  %22 = icmp slt i32 %21, 0
  br i1 %22, label %23, label %26

23:                                               ; preds = %20
  br i1 %.not, label %25, label %24

24:                                               ; preds = %23
  tail call void @PyErr_Clear() #7
  br label %26

25:                                               ; preds = %23
  tail call void (ptr, ...) @PyErr_FormatUnraisable(ptr noundef nonnull @.str.8, ptr noundef nonnull %0) #7
  br label %26

26:                                               ; preds = %24, %25, %20
  tail call void @PyErr_SetRaisedException(ptr noundef %2) #7
  ret void
}